target datalayout = "e-m:e-p270:32:32-p271:32:32-p272:64:64-i64:64-i128:128-f80:128-n8:16:32:64-S128"
target triple = "x86_64-pc-linux-gnu"

%struct.AVFilterContext = type { ptr, ptr, ptr, ptr, ptr, i32, ptr, ptr, i32, ptr, ptr, i32, i32, ptr, ptr, ptr, ptr, i32, ptr, i32, i32 }

@.str.77 = private unnamed_addr constant [5 x i8] c"trim\00", align 1
@.str.78 = private unnamed_addr constant [6 x i8] c"atrim\00", align 1
@.str.79 = private unnamed_addr constant [53 x i8] c"%s filter not present, cannot limit recording time.\0A\00", align 1
@.str.80 = private unnamed_addr constant [10 x i8] c"durationi\00", align 1
@.str.81 = private unnamed_addr constant [7 x i8] c"starti\00", align 1
@.str.82 = private unnamed_addr constant [32 x i8] c"Error configuring the %s filter\00", align 1

; Function Attrs: nounwind uwtable
define internal i32 @insert_trim(ptr noundef %0, i64 noundef %1, i64 noundef %2, ptr noundef %3, ptr noundef %4, ptr noundef %5) #0 {
  %7 = alloca i32, align 4
  %8 = alloca ptr, align 8
  %9 = alloca i64, align 8
  %10 = alloca i64, align 8
  %11 = alloca ptr, align 8
  %12 = alloca ptr, align 8
  %13 = alloca ptr, align 8
  %14 = alloca ptr, align 8
  %15 = alloca ptr, align 8
  %16 = alloca ptr, align 8
  %17 = alloca i32, align 4
  %18 = alloca ptr, align 8
  %19 = alloca i32, align 4
  %20 = alloca i32, align 4
  store ptr %0, ptr %8, align 8, !tbaa !177
  store i64 %1, ptr %9, align 8, !tbaa !253
  store i64 %2, ptr %10, align 8, !tbaa !253
  store ptr %3, ptr %11, align 8, !tbaa !419
  store ptr %4, ptr %12, align 8, !tbaa !283
  store ptr %5, ptr %13, align 8, !tbaa !132
  call void @llvm.lifetime.start.p0(i64 8, ptr %14) #14
  %21 = load ptr, ptr %11, align 8, !tbaa !419
  %22 = load ptr, ptr %21, align 8, !tbaa !147
  %23 = getelementptr inbounds nuw %struct.AVFilterContext, ptr %22, i32 0, i32 10
  %24 = load ptr, ptr %23, align 8, !tbaa !420
  store ptr %24, ptr %14, align 8, !tbaa !140
  call void @llvm.lifetime.start.p0(i64 8, ptr %15) #14
  call void @llvm.lifetime.start.p0(i64 8, ptr %16) #14
  call void @llvm.lifetime.start.p0(i64 4, ptr %17) #14
  %25 = load ptr, ptr %11, align 8, !tbaa !419
  %26 = load ptr, ptr %25, align 8, !tbaa !147
  %27 = getelementptr inbounds nuw %struct.AVFilterContext, ptr %26, i32 0, i32 6
  %28 = load ptr, ptr %27, align 8, !tbaa !173
  %29 = load ptr, ptr %12, align 8, !tbaa !283
  %30 = load i32, ptr %29, align 4, !tbaa !9
  %31 = call i32 @avfilter_pad_get_type(ptr noundef %28, i32 noundef %30)
  store i32 %31, ptr %17, align 4, !tbaa !9
  call void @llvm.lifetime.start.p0(i64 8, ptr %18) #14
  %32 = load i32, ptr %17, align 4, !tbaa !9
  %33 = icmp eq i32 %32, 0
  %34 = select i1 %33, ptr @.str.77, ptr @.str.78
  store ptr %34, ptr %18, align 8, !tbaa !132
  call void @llvm.lifetime.start.p0(i64 4, ptr %19) #14
  store i32 0, ptr %19, align 4, !tbaa !9
  %35 = load i64, ptr %10, align 8, !tbaa !253
  %36 = icmp eq i64 %35, 9223372036854775807
  br i1 %36, label %37, label %41

37:                                               ; preds = %6
  %38 = load i64, ptr %9, align 8, !tbaa !253
  %39 = icmp eq i64 %38, -9223372036854775808
  br i1 %39, label %40, label %41

40:                                               ; preds = %37
  store i32 0, ptr %7, align 4
  store i32 1, ptr %20, align 4
  br label %103

41:                                               ; preds = %37, %6
  %42 = load ptr, ptr %18, align 8, !tbaa !132
  %43 = call ptr @avfilter_get_by_name(ptr noundef %42)
  store ptr %43, ptr %16, align 8, !tbaa !155
  %44 = load ptr, ptr %16, align 8, !tbaa !155
  %45 = icmp ne ptr %44, null
  br i1 %45, label %49, label %46

46:                                               ; preds = %41
  %47 = load ptr, ptr %8, align 8, !tbaa !177
  %48 = load ptr, ptr %18, align 8, !tbaa !132
  call void (ptr, i32, ptr, ...) @av_log(ptr noundef %47, i32 noundef 16, ptr noundef @.str.79, ptr noundef %48)
  store i32 -1279870712, ptr %7, align 4
  store i32 1, ptr %20, align 4
  br label %103

49:                                               ; preds = %41
  %50 = load ptr, ptr %14, align 8, !tbaa !140
  %51 = load ptr, ptr %16, align 8, !tbaa !155
  %52 = load ptr, ptr %13, align 8, !tbaa !132
  %53 = call ptr @avfilter_graph_alloc_filter(ptr noundef %50, ptr noundef %51, ptr noundef %52)
  store ptr %53, ptr %15, align 8, !tbaa !147
  %54 = load ptr, ptr %15, align 8, !tbaa !147
  %55 = icmp ne ptr %54, null
  br i1 %55, label %57, label %56

56:                                               ; preds = %49
  store i32 -12, ptr %7, align 4
  store i32 1, ptr %20, align 4
  br label %103

57:                                               ; preds = %49
  %58 = load i64, ptr %10, align 8, !tbaa !253
  %59 = icmp ne i64 %58, 9223372036854775807
  br i1 %59, label %60, label %64

60:                                               ; preds = %57
  %61 = load ptr, ptr %15, align 8, !tbaa !147
  %62 = load i64, ptr %10, align 8, !tbaa !253
  %63 = call i32 @av_opt_set_int(ptr noundef %61, ptr noundef @.str.80, i64 noundef %62, i32 noundef 1)
  store i32 %63, ptr %19, align 4, !tbaa !9
  br label %64

64:                                               ; preds = %60, %57
  %65 = load i32, ptr %19, align 4, !tbaa !9
  %66 = icmp sge i32 %65, 0
  br i1 %66, label %67, label %74

67:                                               ; preds = %64
  %68 = load i64, ptr %9, align 8, !tbaa !253
  %69 = icmp ne i64 %68, -9223372036854775808
  br i1 %69, label %70, label %74

70:                                               ; preds = %67
  %71 = load ptr, ptr %15, align 8, !tbaa !147
  %72 = load i64, ptr %9, align 8, !tbaa !253
  %73 = call i32 @av_opt_set_int(ptr noundef %71, ptr noundef @.str.81, i64 noundef %72, i32 noundef 1)
  store i32 %73, ptr %19, align 4, !tbaa !9
  br label %74

74:                                               ; preds = %70, %67, %64
  %75 = load i32, ptr %19, align 4, !tbaa !9
  %76 = icmp slt i32 %75, 0
  br i1 %76, label %77, label %81

77:                                               ; preds = %74
  %78 = load ptr, ptr %15, align 8, !tbaa !147
  %79 = load ptr, ptr %18, align 8, !tbaa !132
  call void (ptr, i32, ptr, ...) @av_log(ptr noundef %78, i32 noundef 16, ptr noundef @.str.82, ptr noundef %79)
  %80 = load i32, ptr %19, align 4, !tbaa !9
  store i32 %80, ptr %7, align 4
  store i32 1, ptr %20, align 4
  br label %103

81:                                               ; preds = %74
  %82 = load ptr, ptr %15, align 8, !tbaa !147
  %83 = call i32 @avfilter_init_str(ptr noundef %82, ptr noundef null)
  store i32 %83, ptr %19, align 4, !tbaa !9
  %84 = load i32, ptr %19, align 4, !tbaa !9
  %85 = icmp slt i32 %84, 0
  br i1 %85, label %86, label %88

86:                                               ; preds = %81
  %87 = load i32, ptr %19, align 4, !tbaa !9
  store i32 %87, ptr %7, align 4
  store i32 1, ptr %20, align 4
  br label %103

88:                                               ; preds = %81
  %89 = load ptr, ptr %11, align 8, !tbaa !419
  %90 = load ptr, ptr %89, align 8, !tbaa !147
  %91 = load ptr, ptr %12, align 8, !tbaa !283
  %92 = load i32, ptr %91, align 4, !tbaa !9
  %93 = load ptr, ptr %15, align 8, !tbaa !147
  %94 = call i32 @avfilter_link(ptr noundef %90, i32 noundef %92, ptr noundef %93, i32 noundef 0)
  store i32 %94, ptr %19, align 4, !tbaa !9
  %95 = load i32, ptr %19, align 4, !tbaa !9
  %96 = icmp slt i32 %95, 0
  br i1 %96, label %97, label %99

97:                                               ; preds = %88
  %98 = load i32, ptr %19, align 4, !tbaa !9
  store i32 %98, ptr %7, align 4
  store i32 1, ptr %20, align 4
  br label %103

99:                                               ; preds = %88
  %100 = load ptr, ptr %15, align 8, !tbaa !147
  %101 = load ptr, ptr %11, align 8, !tbaa !419
  store ptr %100, ptr %101, align 8, !tbaa !147
  %102 = load ptr, ptr %12, align 8, !tbaa !283
  store i32 0, ptr %102, align 4, !tbaa !9
  store i32 0, ptr %7, align 4
  store i32 1, ptr %20, align 4
  br label %103

103:                                              ; preds = %99, %97, %86, %77, %56, %46, %40
  call void @llvm.lifetime.end.p0(i64 4, ptr %19) #14
  call void @llvm.lifetime.end.p0(i64 8, ptr %18) #14
  call void @llvm.lifetime.end.p0(i64 4, ptr %17) #14
  call void @llvm.lifetime.end.p0(i64 8, ptr %16) #14
  call void @llvm.lifetime.end.p0(i64 8, ptr %15) #14
  call void @llvm.lifetime.end.p0(i64 8, ptr %14) #14
  %104 = load i32, ptr %7, align 4
  ret i32 %104
}