; Function Attrs: nounwind uwtable
define internal fastcc range(i32 -2147483648, 1) i32 @insert_trim(ptr noundef %0, i64 noundef %1, i64 noundef %2, ptr noundef nonnull captures(none) %3, ptr noundef nonnull captures(none) %4, ptr noundef nonnull %5) unnamed_addr #0 {
  %7 = load ptr, ptr %3, align 8, !tbaa !133
  %8 = getelementptr inbounds nuw i8, ptr %7, i64 80
  %9 = load ptr, ptr %8, align 8, !tbaa !352
  %10 = getelementptr inbounds nuw i8, ptr %7, i64 48
  %11 = load ptr, ptr %10, align 8, !tbaa !164
  %12 = load i32, ptr %4, align 4, !tbaa !118
  %13 = tail call i32 @avfilter_pad_get_type(ptr noundef %11, i32 noundef %12) #17
  %14 = icmp eq i32 %13, 0
  %15 = select i1 %14, ptr @.str.77, ptr @.str.78
  %16 = icmp eq i64 %2, 9223372036854775807
  %17 = icmp eq i64 %1, -9223372036854775808
  %or.cond = and i1 %17, %16
  br i1 %or.cond, label %43, label %18

18:                                               ; preds = %6
  %19 = tail call ptr @avfilter_get_by_name(ptr noundef nonnull %15) #17
  %.not = icmp eq ptr %19, null
  br i1 %.not, label %20, label %21

20:                                               ; preds = %18
  tail call void (ptr, i32, ptr, ...) @av_log(ptr noundef %0, i32 noundef 16, ptr noundef nonnull @.str.79, ptr noundef nonnull %15) #17
  br label %43

21:                                               ; preds = %18
  %22 = tail call ptr @avfilter_graph_alloc_filter(ptr noundef %9, ptr noundef nonnull %19, ptr noundef nonnull %5) #17
  %.not46 = icmp eq ptr %22, null
  br i1 %.not46, label %43, label %23

23:                                               ; preds = %21
  br i1 %16, label %26, label %24

24:                                               ; preds = %23
  %25 = tail call i32 @av_opt_set_int(ptr noundef nonnull %22, ptr noundef nonnull @.str.80, i64 noundef %2, i32 noundef 1) #17
  br label %26

26:                                               ; preds = %24, %23
  %.0 = phi i32 [ %25, %24 ], [ 0, %23 ]
  %27 = icmp sgt i32 %.0, -1
  %28 = icmp ne i64 %1, -9223372036854775808
  %or.cond3 = and i1 %28, %27
  br i1 %or.cond3, label %29, label %31

29:                                               ; preds = %26
  %30 = tail call i32 @av_opt_set_int(ptr noundef nonnull %22, ptr noundef nonnull @.str.81, i64 noundef %1, i32 noundef 1) #17
  br label %31

31:                                               ; preds = %29, %26
  %.1 = phi i32 [ %30, %29 ], [ %.0, %26 ]
  %32 = icmp slt i32 %.1, 0
  br i1 %32, label %33, label %34

33:                                               ; preds = %31
  tail call void (ptr, i32, ptr, ...) @av_log(ptr noundef nonnull %22, i32 noundef 16, ptr noundef nonnull @.str.82, ptr noundef nonnull %15) #17
  br label %43

34:                                               ; preds = %31
  %35 = tail call i32 @avfilter_init_str(ptr noundef nonnull %22, ptr noundef null) #17
  %36 = icmp slt i32 %35, 0
  br i1 %36, label %43, label %37

37:                                               ; preds = %34
  %38 = load ptr, ptr %3, align 8, !tbaa !133
  %39 = load i32, ptr %4, align 4, !tbaa !118
  %40 = tail call i32 @avfilter_link(ptr noundef %38, i32 noundef %39, ptr noundef nonnull %22, i32 noundef 0) #17
  %41 = icmp slt i32 %40, 0
  br i1 %41, label %43, label %42

42:                                               ; preds = %37
  store ptr %22, ptr %3, align 8, !tbaa !133
  store i32 0, ptr %4, align 4, !tbaa !118
  br label %43

43:                                               ; preds = %37, %34, %21, %6, %42, %33, %20
  %.039 = phi i32 [ %.1, %33 ], [ 0, %42 ], [ -1279870712, %20 ], [ 0, %6 ], [ -12, %21 ], [ %35, %34 ], [ %40, %37 ]
  ret i32 %.039
}